ccopy_reg
_reconstructor
p0
(csklearn.preprocessing._label
LabelEncoder
p1
c__builtin__
object
p2
Ntp3
Rp4
(dp5
Vclasses_
p6
cnumpy.core.multiarray
_reconstruct
p7
(cnumpy
ndarray
p8
(I0
tp9
c_codecs
encode
p10
(Vb
p11
Vlatin1
p12
tp13
Rp14
tp15
Rp16
(I1
(I2
tp17
cnumpy
dtype
p18
(VU8
p19
I0
I1
tp20
Rp21
(I3
V<
p22
NNNI32
I4
I8
tp23
bI00
g10
(VN\u0000\u0000\u0000E\u0000\u0000\u0000G\u0000\u0000\u0000A\u0000\u0000\u0000T\u0000\u0000\u0000I\u0000\u0000\u0000V\u0000\u0000\u0000E\u0000\u0000\u0000P\u0000\u0000\u0000O\u0000\u0000\u0000S\u0000\u0000\u0000I\u0000\u0000\u0000T\u0000\u0000\u0000I\u0000\u0000\u0000V\u0000\u0000\u0000E\u0000\u0000\u0000
p24
g12
tp25
Rp26
tp27
bsV_sklearn_version
p28
V0.23.1
p29
sb.